	.arch armv5te
	.fpu softvfp
	.eabi_attribute 20, 1
	.eabi_attribute 21, 1
	.eabi_attribute 23, 3
	.eabi_attribute 24, 1
	.eabi_attribute 25, 1
	.eabi_attribute 26, 1
	.eabi_attribute 30, 2
	.eabi_attribute 34, 0
	.eabi_attribute 18, 4
	.code	16
	.file	"animalMob.cpp"
	.text
.Ltext0:
	.cfi_sections	.debug_frame
	.section	.text._ZN9animalMobD2Ev,"axG",%progbits,_ZN9animalMobD5Ev,comdat
	.align	2
	.weak	_ZN9animalMobD2Ev
	.code	16
	.thumb_func
	.type	_ZN9animalMobD2Ev, %function
_ZN9animalMobD2Ev:
.LFB194:
	.file 1 "c:/Users/Matthew/Documents/GitHub/Mine-DS/source/mobs/animalMob.h"
	.loc 1 30 0
	.cfi_startproc
.LVL0:
	.loc 1 30 0
	@ sp needed
	bx	lr
	.cfi_endproc
.LFE194:
	.size	_ZN9animalMobD2Ev, .-_ZN9animalMobD2Ev
	.weak	_ZN9animalMobD1Ev
	.thumb_set _ZN9animalMobD1Ev,_ZN9animalMobD2Ev
	.text
	.align	2
	.global	_ZN9animalMob14sendWifiUpdateEv
	.code	16
	.thumb_func
	.type	_ZN9animalMob14sendWifiUpdateEv, %function
_ZN9animalMob14sendWifiUpdateEv:
.LFB206:
	.file 2 "c:/Users/Matthew/Documents/GitHub/Mine-DS/source/mobs/animalMob.cpp"
	.loc 2 133 0
	.cfi_startproc
.LVL1:
	.loc 2 134 0
	@ sp needed
	bx	lr
	.cfi_endproc
.LFE206:
	.size	_ZN9animalMob14sendWifiUpdateEv, .-_ZN9animalMob14sendWifiUpdateEv
	.align	2
	.global	_ZN9animalMob10saveToFileEP7__sFILE
	.code	16
	.thumb_func
	.type	_ZN9animalMob10saveToFileEP7__sFILE, %function
_ZN9animalMob10saveToFileEP7__sFILE:
.LFB207:
	.loc 2 137 0
	.cfi_startproc
.LVL2:
	.loc 2 138 0
	@ sp needed
	bx	lr
	.cfi_endproc
.LFE207:
	.size	_ZN9animalMob10saveToFileEP7__sFILE, .-_ZN9animalMob10saveToFileEP7__sFILE
	.align	2
	.global	_ZN9animalMob10isMyPlayerEv
	.code	16
	.thumb_func
	.type	_ZN9animalMob10isMyPlayerEv, %function
_ZN9animalMob10isMyPlayerEv:
.LFB210:
	.loc 2 188 0
	.cfi_startproc
.LVL3:
	.loc 2 190 0
	mov	r0, #0
.LVL4:
	@ sp needed
	bx	lr
	.cfi_endproc
.LFE210:
	.size	_ZN9animalMob10isMyPlayerEv, .-_ZN9animalMob10isMyPlayerEv
	.global	__aeabi_i2f
	.global	__aeabi_fsub
	.global	__aeabi_f2iz
	.global	__aeabi_idivmod
	.global	__aeabi_fcmpgt
	.align	2
	.global	_ZN9animalMob9updateMobEP11WorldObject
	.code	16
	.thumb_func
	.type	_ZN9animalMob9updateMobEP11WorldObject, %function
_ZN9animalMob9updateMobEP11WorldObject:
.LFB205:
	.loc 2 61 0
	.cfi_startproc
.LVL5:
	push	{r4, r5, r6, r7, lr}
	.cfi_def_cfa_offset 20
	.cfi_offset 4, -20
	.cfi_offset 5, -16
	.cfi_offset 6, -12
	.cfi_offset 7, -8
	.cfi_offset 14, -4
	mov	r7, r8
	push	{r7}
	.cfi_def_cfa_offset 24
	.cfi_offset 8, -24
	.loc 2 62 0
	ldr	r5, [r0, #32]
	.loc 2 61 0
	sub	sp, sp, #8
	.cfi_def_cfa_offset 32
	.loc 2 61 0
	mov	r4, r0
	mov	r6, r1
	.loc 2 62 0
	cmp	r5, #0
	beq	.L74
	.loc 2 63 0
	cmp	r5, #1
	bne	.LCB75
	b	.L75	@long jump
.LCB75:
.LVL6:
.L7:
	.loc 2 65 0
	mov	r3, #68
	ldrb	r3, [r4, r3]
	cmp	r3, #0
	bne	.L76
.LVL7:
.L5:
	.loc 2 130 0
	add	sp, sp, #8
	@ sp needed
.LVL8:
	pop	{r2}
	mov	r8, r2
	pop	{r4, r5, r6, r7, pc}
.LVL9:
.L76:
	.loc 2 67 0
	ldr	r0, [r4, #4]
	bl	__aeabi_f2iz
.LVL10:
	mov	r5, r0
	ldr	r0, [r4, #8]
	bl	__aeabi_f2iz
.LVL11:
	mov	r3, r0
	mov	r0, #128
	mov	r2, r5
	lsl	r0, r0, #1
	mov	r1, #2
	bl	_Z17mobHandlerFindMobiiii
.LVL12:
	.loc 2 69 0
	ldr	r5, [r4, #76]
	.loc 2 67 0
	str	r0, [r4, #88]
	.loc 2 69 0
	cmp	r5, #1
	beq	.L77
	.loc 2 75 0
	ldr	r3, [r0, #40]
	cmp	r3, #2
	beq	.L78
.L10:
	.loc 2 77 0
	mov	r3, #0
	str	r3, [r4, #76]
	.loc 2 78 0
	ldr	r3, [r4, #92]
	add	r3, r3, #1
	str	r3, [r4, #92]
.LVL13:
.L13:
	.loc 2 122 0
	ldr	r3, [r4, #40]
	cmp	r3, #2
	beq	.L79
.L32:
	.loc 2 123 0
	mov	r3, #0
	str	r3, [r4, #60]
	.loc 2 124 0
	ldr	r3, [r4, #52]
	cmp	r3, #0
	bgt	.LCB144
	b	.L80	@long jump
.LCB144:
.L33:
	.loc 2 127 0
	ldr	r3, [r4, #36]
	cmp	r3, #0
	beq	.L81
	.loc 2 128 0
	sub	r3, r3, #1
	str	r3, [r4, #36]
	b	.L5
.LVL14:
.L74:
	.loc 2 62 0 discriminator 1
	mov	r3, #96
	ldrb	r7, [r0, r3]
	ldr	r3, .L84
	lsl	r7, r7, #6
	add	r7, r3, r7
	ldr	r3, .L84+4
	ldr	r0, [r1, r3]
.LVL15:
	bl	__aeabi_i2f
.LVL16:
	add	r1, r0, #0
	ldr	r0, [r4, #4]
	bl	__aeabi_fsub
.LVL17:
	ldr	r1, .L84+8
	bl	__aeabi_fsub
.LVL18:
	bl	__aeabi_f2iz
.LVL19:
	ldr	r3, .L84+12
	mov	r8, r0
	ldr	r0, [r6, r3]
	bl	__aeabi_i2f
.LVL20:
	add	r1, r0, #0
	ldr	r0, [r4, #8]
	bl	__aeabi_fsub
.LVL21:
	ldr	r1, .L84+8
	bl	__aeabi_fsub
.LVL22:
	bl	__aeabi_f2iz
.LVL23:
	mov	r3, #74
	mov	r2, r0
	ldrb	r3, [r4, r3]
	str	r5, [sp]
	mov	r0, r7
	mov	r1, r8
	bl	_Z11showGraphicP7Graphiciibi
.LVL24:
	b	.L7
.LVL25:
.L81:
	.loc 2 127 0 discriminator 1
	str	r3, [r4, #32]
	b	.L5
.L79:
	.loc 2 122 0 discriminator 1
	mov	r3, #0
	str	r3, [r4, #92]
	b	.L32
.LVL26:
.L78:
	.loc 2 80 0
	cmp	r5, #0
	beq	.L14
	.loc 2 117 0
	ldr	r0, [r0, #4]
	ldr	r1, [r4, #4]
	bl	__aeabi_fcmpgt
.LVL27:
	sub	r3, r0, #1
	sbc	r0, r0, r3
	mov	r3, #74
	strb	r0, [r4, r3]
	cmp	r0, #0
	bne	.L41
	ldr	r3, .L84+16
.L29:
	.loc 2 117 0 is_stmt 0 discriminator 4
	str	r3, [r4, #16]
	.loc 2 118 0 is_stmt 1 discriminator 4
	mov	r3, #70
	ldrb	r3, [r4, r3]
	cmp	r3, #0
	bne	.L30
	.loc 2 118 0 is_stmt 0 discriminator 2
	mov	r3, #71
	ldrb	r3, [r4, r3]
	cmp	r3, #0
	beq	.L31
.L30:
	.loc 2 118 0 discriminator 3
	mov	r3, #69
	ldrb	r3, [r4, r3]
	cmp	r3, #0
	beq	.L31
	.loc 2 118 0 discriminator 4
	mov	r3, #72
	ldrb	r3, [r4, r3]
	cmp	r3, #0
	bne	.L31
	.loc 2 119 0 is_stmt 1
	ldr	r3, .L84+20
	str	r3, [r4, #12]
.L31:
	.loc 2 120 0
	sub	r5, r5, #1
	str	r5, [r4, #76]
	b	.L13
.L77:
	.loc 2 71 0
	mov	r3, #0
	str	r3, [r4, #16]
	.loc 2 72 0
	mov	r3, #0
	str	r3, [r4, #76]
	.loc 2 75 0
	ldr	r3, [r0, #40]
	cmp	r3, #2
	bne	.L10
.L14:
	.loc 2 82 0
	ldr	r3, [r4, #84]
	cmp	r3, #1
	ble	.L82
	.loc 2 84 0
	mov	r2, #70
	ldrb	r2, [r4, r2]
	cmp	r2, #0
	bne	.L16
	.loc 2 84 0 is_stmt 0 discriminator 2
	mov	r2, #71
	ldrb	r2, [r4, r2]
	cmp	r2, #0
	bne	.L17
	.loc 2 87 0 is_stmt 1
	sub	r3, r3, #1
	str	r3, [r4, #84]
	mov	r3, #69
	.loc 2 88 0
	ldrb	r3, [r4, r3]
	cmp	r3, #0
	bne	.L13
.L22:
	.loc 2 88 0 is_stmt 0 discriminator 5
	mov	r3, #71
	ldrb	r3, [r4, r3]
	cmp	r3, #0
	beq	.L13
	.loc 2 88 0 discriminator 6
	mov	r3, #80
	ldrb	r3, [r4, r3]
	cmp	r3, #0
	beq	.LCB305
	b	.L13	@long jump
.LCB305:
.LVL28:
.L25:
	.loc 2 88 0
	ldr	r0, [r4, #12]
	mov	r1, #0
	bl	__aeabi_fcmpgt
.LVL29:
	cmp	r0, #0
	bne	.LCB314
	b	.L13	@long jump
.LCB314:
	.loc 2 90 0 is_stmt 1
	mov	r3, #50
	.loc 2 91 0
	mov	r2, #0
	.loc 2 90 0
	str	r3, [r4, #84]
	.loc 2 91 0
	mov	r3, #74
	strb	r2, [r4, r3]
	mov	r3, #80
	mov	r2, #1
	strb	r2, [r4, r3]
	.loc 2 92 0
	mov	r3, #128
	lsl	r3, r3, #23
	.loc 2 106 0
	str	r3, [r4, #16]
	b	.L13
.LVL30:
.L75:
	.loc 2 63 0 discriminator 1
	mov	r3, #96
	ldrb	r5, [r0, r3]
	ldr	r3, .L84
	lsl	r5, r5, #6
	add	r5, r5, #32
	add	r5, r3, r5
	ldr	r3, .L84+4
	ldr	r0, [r1, r3]
.LVL31:
	bl	__aeabi_i2f
.LVL32:
	add	r1, r0, #0
	ldr	r0, [r4, #4]
	bl	__aeabi_fsub
.LVL33:
	ldr	r1, .L84+8
	bl	__aeabi_fsub
.LVL34:
	bl	__aeabi_f2iz
.LVL35:
	ldr	r3, .L84+12
	mov	r7, r0
	ldr	r0, [r6, r3]
	bl	__aeabi_i2f
.LVL36:
	add	r1, r0, #0
	ldr	r0, [r4, #8]
	bl	__aeabi_fsub
.LVL37:
	ldr	r1, .L84+8
	bl	__aeabi_fsub
.LVL38:
	bl	__aeabi_f2iz
.LVL39:
	mov	r1, #0
	mov	r3, #74
	mov	r2, r0
	str	r1, [sp]
	ldrb	r3, [r4, r3]
	mov	r0, r5
	mov	r1, r7
	bl	_Z11showGraphicP7Graphiciibi
.LVL40:
	b	.L7
.LVL41:
.L80:
	.loc 2 125 0
	mov	r0, r4
	bl	_ZN7baseMob7killMobEv
.LVL42:
	b	.L33
.LVL43:
.L41:
	.loc 2 117 0
	ldr	r3, .L84+24
	b	.L29
.L16:
	.loc 2 84 0 discriminator 3
	mov	r3, #69
	ldrb	r5, [r4, r3]
	cmp	r5, #0
	beq	.L83
.L19:
	.loc 2 84 0 is_stmt 0
	mov	r3, #72
	ldrb	r3, [r4, r3]
	cmp	r3, #0
	beq	.LCB406
	b	.L13	@long jump
.LCB406:
	.loc 2 85 0 is_stmt 1
	ldr	r3, .L84+20
	str	r3, [r4, #12]
	b	.L13
.L83:
	.loc 2 88 0
	mov	r6, #80
.LVL44:
	ldrb	r3, [r4, r6]
	cmp	r3, #0
	bne	.L23
	mov	r3, #71
	ldrb	r3, [r4, r3]
	cmp	r3, #0
	bne	.L25
	b	.L13
.LVL45:
.L82:
	.loc 2 95 0
	cmp	r3, #1
	bne	.L26
	.loc 2 97 0
	mov	r3, #0
	str	r3, [r4, #16]
	.loc 2 98 0
	mov	r3, #0
	str	r3, [r4, #84]
	b	.L13
.L17:
	.loc 2 84 0
	mov	r3, #69
	ldrb	r3, [r4, r3]
	cmp	r3, #0
	bne	.L19
	b	.L22
.LVL46:
.L23:
	.loc 2 88 0
	ldr	r0, [r4, #12]
	mov	r1, #0
	bl	__aeabi_fcmpgt
.LVL47:
	cmp	r0, #0
	bne	.LCB455
	b	.L13	@long jump
.LCB455:
	.loc 2 90 0
	mov	r3, #50
	.loc 2 91 0
	mov	r2, #1
	.loc 2 90 0
	str	r3, [r4, #84]
	.loc 2 91 0
	mov	r3, #74
	strb	r2, [r4, r3]
	.loc 2 92 0
	mov	r3, #192
	lsl	r3, r3, #24
	.loc 2 91 0
	strb	r5, [r4, r6]
	.loc 2 106 0
	str	r3, [r4, #16]
	b	.L13
.LVL48:
.L26:
	.loc 2 100 0
	bl	rand
.LVL49:
	mov	r1, #50
	bl	__aeabi_idivmod
.LVL50:
	sub	r5, r1, #0
	beq	.LCB478
	b	.L13	@long jump
.LCB478:
	.loc 2 102 0
	bl	rand
.LVL51:
	mov	r1, #40
	bl	__aeabi_idivmod
.LVL52:
	add	r1, r1, #60
	str	r1, [r4, #84]
	.loc 2 103 0
	bl	rand
.LVL53:
	mov	r3, #1
	.loc 2 105 0
	mov	r2, #74
	.loc 2 103 0
	and	r0, r3
	bne	.L27
	.loc 2 105 0
	strb	r0, [r4, r2]
	mov	r2, #80
	strb	r3, [r4, r2]
	.loc 2 106 0
	mov	r3, #128
	lsl	r3, r3, #23
	str	r3, [r4, #16]
	b	.L13
.L27:
	.loc 2 110 0
	strb	r3, [r4, r2]
	mov	r3, #80
	strb	r5, [r4, r3]
	.loc 2 111 0
	mov	r3, #192
	lsl	r3, r3, #24
	str	r3, [r4, #16]
	b	.L13
.L85:
	.align	2
.L84:
	.word	.LANCHOR0
	.word	1588252
	.word	1088421888
	.word	1588248
	.word	1077936128
	.word	-1061158912
	.word	-1069547520
	.cfi_endproc
.LFE205:
	.size	_ZN9animalMob9updateMobEP11WorldObject, .-_ZN9animalMob9updateMobEP11WorldObject
	.align	2
	.global	_ZN9animalMob12loadFromFileEP7__sFILE
	.code	16
	.thumb_func
	.type	_ZN9animalMob12loadFromFileEP7__sFILE, %function
_ZN9animalMob12loadFromFileEP7__sFILE:
.LFB208:
	.loc 2 141 0
	.cfi_startproc
.LVL54:
	push	{r3, lr}
	.cfi_def_cfa_offset 8
	.cfi_offset 3, -8
	.cfi_offset 14, -4
	.loc 2 142 0
	bl	_ZN7baseMob7killMobEv
.LVL55:
	.loc 2 143 0
	@ sp needed
	pop	{r3, pc}
	.cfi_endproc
.LFE208:
	.size	_ZN9animalMob12loadFromFileEP7__sFILE, .-_ZN9animalMob12loadFromFileEP7__sFILE
	.global	__aeabi_fmul
	.align	2
	.global	_ZN9animalMob4hurtEii
	.code	16
	.thumb_func
	.type	_ZN9animalMob4hurtEii, %function
_ZN9animalMob4hurtEii:
.LFB209:
	.loc 2 146 0
	.cfi_startproc
.LVL56:
	push	{r4, r5, r6, r7, lr}
	.cfi_def_cfa_offset 20
	.cfi_offset 4, -20
	.cfi_offset 5, -16
	.cfi_offset 6, -12
	.cfi_offset 7, -8
	.cfi_offset 14, -4
	mov	r7, r8
	push	{r7}
	.cfi_def_cfa_offset 24
	.cfi_offset 8, -24
	.loc 2 148 0
	ldr	r3, [r0, #32]
	.loc 2 146 0
	sub	sp, sp, #8
	.cfi_def_cfa_offset 32
	.loc 2 148 0
	cmp	r3, #1
	beq	.L87
	mov	r5, r2
	mov	r4, r0
	.loc 2 150 0
	cmp	r2, #1
	beq	.L89
	.loc 2 150 0 is_stmt 0 discriminator 1
	mov	r3, #69
	ldrb	r3, [r0, r3]
	cmp	r3, #0
	bne	.L125
	.loc 2 153 0 is_stmt 1
	mov	r2, #96
.LVL57:
	.loc 2 152 0
	ldr	r3, [r4, #52]
	sub	r3, r3, r1
	str	r3, [r4, #52]
	.loc 2 153 0
	ldrb	r2, [r4, r2]
	cmp	r2, #1
	beq	.L92
.L128:
	cmp	r2, #0
	beq	.L93
	cmp	r2, #2
	bne	.L91
.L94:
	.loc 2 162 0
	mov	r0, #18
.LVL58:
	bl	_Z9playSound7sound_t
.LVL59:
	ldr	r3, [r4, #52]
.L91:
	.loc 2 165 0
	cmp	r5, #2
	beq	.L126
.L96:
	.loc 2 167 0
	cmp	r3, #0
	ble	.L127
.LVL60:
.L97:
	.loc 2 183 0
	mov	r3, #1
	str	r3, [r4, #32]
	.loc 2 184 0
	mov	r3, #20
	str	r3, [r4, #36]
.LVL61:
.L87:
	.loc 2 185 0
	add	sp, sp, #8
	@ sp needed
	pop	{r2}
	mov	r8, r2
	pop	{r4, r5, r6, r7, pc}
.LVL62:
.L125:
	.loc 2 153 0
	mov	r2, #96
.LVL63:
	.loc 2 151 0
	ldr	r3, .L129
	str	r3, [r0, #12]
	.loc 2 152 0
	ldr	r3, [r4, #52]
	sub	r3, r3, r1
	str	r3, [r4, #52]
	.loc 2 153 0
	ldrb	r2, [r4, r2]
	cmp	r2, #1
	bne	.L128
.L92:
	.loc 2 159 0
	mov	r0, #20
.LVL64:
	bl	_Z9playSound7sound_t
.LVL65:
	ldr	r3, [r4, #52]
	.loc 2 165 0
	cmp	r5, #2
	bne	.L96
.L126:
	.loc 2 166 0
	mov	r2, #200
	str	r2, [r4, #76]
	.loc 2 167 0
	cmp	r3, #0
	bgt	.L97
.L127:
	.loc 2 169 0
	mov	r3, #96
	ldrb	r3, [r4, r3]
	cmp	r3, #1
	beq	.L98
	cmp	r3, #0
	beq	.L99
	cmp	r3, #2
	bne	.L97
	.loc 2 179 0
	mov	r1, #246
	ldr	r0, [r4, #4]
	lsl	r1, r1, #22
	bl	__aeabi_fmul
.LVL66:
	bl	__aeabi_f2iz
.LVL67:
	mov	r1, #246
	mov	r6, r0
	lsl	r1, r1, #22
	ldr	r0, [r4, #8]
	bl	__aeabi_fmul
.LVL68:
	bl	__aeabi_f2iz
.LVL69:
	mov	r5, r0
.LVL70:
	bl	rand
.LVL71:
	mov	r1, #3
	bl	__aeabi_idivmod
.LVL72:
	mov	r2, #1
	neg	r2, r2
	str	r2, [sp]
	ldr	r2, .L129+4
	mov	r3, r1
	str	r2, [sp, #4]
	mov	r0, r6
	mov	r1, r5
	mov	r2, #53
	bl	_Z13createItemMobiiiiif
.LVL73:
	.loc 2 180 0
	b	.L97
.LVL74:
.L93:
	.loc 2 156 0
	mov	r0, #7
.LVL75:
	bl	_Z9playSound7sound_t
.LVL76:
	ldr	r3, [r4, #52]
	.loc 2 157 0
	b	.L91
.LVL77:
.L89:
	.loc 2 153 0
	mov	r2, #96
.LVL78:
	.loc 2 152 0
	ldr	r3, [r0, #52]
	sub	r3, r3, r1
	str	r3, [r0, #52]
	.loc 2 153 0
	ldrb	r2, [r0, r2]
	cmp	r2, #1
	beq	.L92
	cmp	r2, #0
	beq	.L93
	cmp	r2, #2
	beq	.L94
	b	.L96
.LVL79:
.L98:
	.loc 2 176 0
	mov	r1, #246
	ldr	r0, [r4, #4]
	lsl	r1, r1, #22
	bl	__aeabi_fmul
.LVL80:
	bl	__aeabi_f2iz
.LVL81:
	mov	r1, #246
	mov	r7, r0
	lsl	r1, r1, #22
	ldr	r0, [r4, #8]
	bl	__aeabi_fmul
.LVL82:
	bl	__aeabi_f2iz
.LVL83:
	mov	r6, r0
	bl	rand
.LVL84:
	asr	r3, r0, #31
	lsr	r5, r3, #30
.LVL85:
	mov	r3, #3
	add	r2, r0, r5
	and	r2, r3
	sub	r3, r2, r5
	mov	r2, #1
	neg	r2, r2
	str	r2, [sp]
	ldr	r2, .L129+4
	mov	r0, r7
	str	r2, [sp, #4]
	mov	r1, r6
	mov	r2, #40
	bl	_Z13createItemMobiiiiif
.LVL86:
	.loc 2 177 0
	b	.L97
.LVL87:
.L99:
	.loc 2 172 0
	mov	r1, #246
	ldr	r0, [r4, #4]
	lsl	r1, r1, #22
	bl	__aeabi_fmul
.LVL88:
	bl	__aeabi_f2iz
.LVL89:
	mov	r1, #246
	mov	r7, r0
	lsl	r1, r1, #22
	ldr	r0, [r4, #8]
	bl	__aeabi_fmul
.LVL90:
	bl	__aeabi_f2iz
.LVL91:
	mov	r6, r0
	bl	rand
.LVL92:
	asr	r3, r0, #31
	lsr	r5, r3, #30
.LVL93:
	mov	r3, #3
	add	r2, r0, r5
	and	r2, r3
	sub	r3, r2, r5
	mov	r2, #1
	ldr	r5, .L129+4
	neg	r2, r2
	mov	r8, r2
	str	r2, [sp]
	mov	r0, r7
	mov	r2, #54
	mov	r1, r6
	str	r5, [sp, #4]
	bl	_Z13createItemMobiiiiif
.LVL94:
	.loc 2 173 0
	mov	r1, #246
	ldr	r0, [r4, #4]
	lsl	r1, r1, #22
	bl	__aeabi_fmul
.LVL95:
	bl	__aeabi_f2iz
.LVL96:
	mov	r1, #246
	mov	r7, r0
	lsl	r1, r1, #22
	ldr	r0, [r4, #8]
	bl	__aeabi_fmul
.LVL97:
	bl	__aeabi_f2iz
.LVL98:
	mov	r6, r0
	bl	rand
.LVL99:
	mov	r1, #3
	bl	__aeabi_idivmod
.LVL100:
	mov	r2, r8
	mov	r3, r1
	str	r2, [sp]
	str	r5, [sp, #4]
	mov	r0, r7
	mov	r1, r6
	mov	r2, #55
	bl	_Z13createItemMobiiiiif
.LVL101:
	.loc 2 174 0
	b	.L97
.L130:
	.align	2
.L129:
	.word	-1061158912
	.word	1196699904
	.cfi_endproc
.LFE209:
	.size	_ZN9animalMob4hurtEii, .-_ZN9animalMob4hurtEii
	.section	.text._ZN9animalMobD0Ev,"axG",%progbits,_ZN9animalMobD5Ev,comdat
	.align	2
	.weak	_ZN9animalMobD0Ev
	.code	16
	.thumb_func
	.type	_ZN9animalMobD0Ev, %function
_ZN9animalMobD0Ev:
.LFB196:
	.loc 1 30 0
	.cfi_startproc
.LVL102:
	push	{r4, lr}
	.cfi_def_cfa_offset 8
	.cfi_offset 4, -8
	.cfi_offset 14, -4
	.loc 1 30 0
	mov	r4, r0
	@ sp needed
	bl	_ZdlPv
.LVL103:
	mov	r0, r4
.LVL104:
	pop	{r4, pc}
	.cfi_endproc
.LFE196:
	.size	_ZN9animalMobD0Ev, .-_ZN9animalMobD0Ev
	.text
	.align	2
	.global	_ZN9animalMobC2Ev
	.code	16
	.thumb_func
	.type	_ZN9animalMobC2Ev, %function
_ZN9animalMobC2Ev:
.LFB200:
	.loc 2 17 0
	.cfi_startproc
.LVL105:
	push	{r4, lr}
	.cfi_def_cfa_offset 8
	.cfi_offset 4, -8
	.cfi_offset 14, -4
	.loc 2 17 0
	mov	r4, r0
.LBB14:
	bl	_ZN7baseMobC2Ev
.LVL106:
	ldr	r3, .L133
	.loc 2 21 0
	mov	r1, #1
	.loc 2 17 0
	add	r3, r3, #8
	str	r3, [r4]
	.loc 2 21 0
	mov	r2, #80
	.loc 2 19 0
	mov	r3, #0
	str	r3, [r4, #88]
	.loc 2 20 0
	str	r3, [r4, #84]
	.loc 2 21 0
	strb	r1, [r4, r2]
	.loc 2 23 0
	mov	r2, #0
	str	r2, [r4, #4]
	.loc 2 24 0
	str	r2, [r4, #8]
	.loc 2 25 0
	str	r2, [r4, #12]
	.loc 2 26 0
	str	r2, [r4, #16]
	.loc 2 29 0
	mov	r2, #10
.LBE14:
	.loc 2 34 0
	mov	r0, r4
.LBB15:
	.loc 2 22 0
	str	r3, [r4, #76]
	.loc 2 27 0
	str	r3, [r4, #60]
	.loc 2 28 0
	strb	r3, [r4, #29]
	.loc 2 29 0
	str	r2, [r4, #52]
	.loc 2 30 0
	str	r3, [r4, #40]
	.loc 2 31 0
	str	r3, [r4, #36]
	.loc 2 32 0
	str	r3, [r4, #92]
	.loc 2 33 0
	strb	r1, [r4, #28]
.LBE15:
	.loc 2 34 0
	@ sp needed
.LVL107:
	pop	{r4, pc}
.L134:
	.align	2
.L133:
	.word	.LANCHOR1
	.cfi_endproc
.LFE200:
	.size	_ZN9animalMobC2Ev, .-_ZN9animalMobC2Ev
	.global	_ZN9animalMobC1Ev
	.thumb_set _ZN9animalMobC1Ev,_ZN9animalMobC2Ev
	.align	2
	.global	_ZN9animalMobC2Eii
	.code	16
	.thumb_func
	.type	_ZN9animalMobC2Eii, %function
_ZN9animalMobC2Eii:
.LFB203:
	.loc 2 36 0
	.cfi_startproc
.LVL108:
	push	{r3, r4, r5, r6, r7, lr}
	.cfi_def_cfa_offset 24
	.cfi_offset 3, -24
	.cfi_offset 4, -20
	.cfi_offset 5, -16
	.cfi_offset 6, -12
	.cfi_offset 7, -8
	.cfi_offset 14, -4
	mov	r7, r9
	mov	r6, r8
	mov	r4, r0
	push	{r6, r7}
	.cfi_def_cfa_offset 32
	.cfi_offset 8, -32
	.cfi_offset 9, -28
	.loc 2 36 0
	mov	r9, r1
	mov	r8, r2
.LBB16:
	bl	_ZN7baseMobC2Ev
.LVL109:
	ldr	r3, .L136
	.loc 2 38 0
	mov	r5, #0
	.loc 2 36 0
	add	r3, r3, #8
	str	r3, [r4]
	.loc 2 40 0
	mov	r6, #1
	mov	r3, #80
	.loc 2 38 0
	str	r5, [r4, #88]
	.loc 2 39 0
	str	r5, [r4, #84]
	.loc 2 42 0
	mov	r7, #10
	.loc 2 40 0
	strb	r6, [r4, r3]
	.loc 2 43 0
	mov	r3, #16
	.loc 2 41 0
	str	r5, [r4, #76]
	.loc 2 43 0
	str	r3, [r4, #24]
	.loc 2 42 0
	str	r7, [r4, #20]
	.loc 2 44 0
	mov	r0, r9
	bl	__aeabi_i2f
.LVL110:
	str	r0, [r4, #4]
	.loc 2 45 0
	mov	r0, r8
	bl	__aeabi_i2f
.LVL111:
	.loc 2 46 0
	mov	r3, #0
	str	r3, [r4, #12]
	.loc 2 47 0
	str	r3, [r4, #16]
	.loc 2 49 0
	mov	r3, #74
	.loc 2 48 0
	strb	r5, [r4, #29]
	.loc 2 45 0
	str	r0, [r4, #8]
	.loc 2 49 0
	strb	r5, [r4, r3]
	.loc 2 50 0
	mov	r3, #5
	.loc 2 51 0
	str	r7, [r4, #52]
	.loc 2 50 0
	str	r3, [r4, #40]
	.loc 2 52 0
	str	r5, [r4, #60]
	.loc 2 53 0
	str	r5, [r4, #32]
	.loc 2 54 0
	str	r5, [r4, #92]
	.loc 2 55 0
	bl	rand
.LVL112:
	asr	r2, r0, #31
	lsr	r2, r2, #30
	add	r3, r0, r2
	mov	r0, #3
	and	r0, r3
	sub	r0, r0, r2
	add	r0, r0, #4
	.loc 2 56 0
	strb	r6, [r4, #28]
	.loc 2 55 0
	str	r0, [r4, #56]
	.loc 2 57 0
	bl	rand
.LVL113:
	mov	r1, #3
	bl	__aeabi_idivmod
.LVL114:
	mov	r3, #96
.LBE16:
	.loc 2 58 0
	mov	r0, r4
.LBB17:
	.loc 2 57 0
	strb	r1, [r4, r3]
.LBE17:
	.loc 2 58 0
	@ sp needed
.LVL115:
.LVL116:
.LVL117:
	pop	{r2, r3}
	mov	r8, r2
	mov	r9, r3
	pop	{r3, r4, r5, r6, r7, pc}
.L137:
	.align	2
.L136:
	.word	.LANCHOR1
	.cfi_endproc
.LFE203:
	.size	_ZN9animalMobC2Eii, .-_ZN9animalMobC2Eii
	.global	_ZN9animalMobC1Eii
	.thumb_set _ZN9animalMobC1Eii,_ZN9animalMobC2Eii
	.align	2
	.global	_Z21canAnimalMobSpawnHereP11WorldObjectii
	.code	16
	.thumb_func
	.type	_Z21canAnimalMobSpawnHereP11WorldObjectii, %function
_Z21canAnimalMobSpawnHereP11WorldObjectii:
.LFB211:
	.loc 2 193 0
	.cfi_startproc
.LVL118:
	push	{r3, lr}
	.cfi_def_cfa_offset 8
	.cfi_offset 3, -8
	.cfi_offset 14, -4
	.loc 2 194 0
	bl	_Z15canMobSpawnHereP11WorldObjectii
.LVL119:
	.loc 2 195 0
	@ sp needed
	pop	{r3, pc}
	.cfi_endproc
.LFE211:
	.size	_Z21canAnimalMobSpawnHereP11WorldObjectii, .-_Z21canAnimalMobSpawnHereP11WorldObjectii
	.align	2
	.global	_Z13animalMobInitv
	.code	16
	.thumb_func
	.type	_Z13animalMobInitv, %function
_Z13animalMobInitv:
.LFB212:
	.loc 2 198 0
	.cfi_startproc
	push	{r4, r5, lr}
	.cfi_def_cfa_offset 12
	.cfi_offset 4, -12
	.cfi_offset 5, -8
	.cfi_offset 14, -4
	.loc 2 199 0
	ldr	r4, .L140
	mov	r5, #16
	mov	r0, r4
	.loc 2 198 0
	sub	sp, sp, #12
	.cfi_def_cfa_offset 24
	.loc 2 199 0
	add	r0, r0, #128
	str	r5, [sp]
	mov	r1, #1
	mov	r2, #10
	mov	r3, #16
	bl	_Z11loadGraphicP7Graphiciiii
.LVL120:
	.loc 2 200 0
	mov	r0, r4
	str	r5, [sp]
	add	r0, r0, #160
	mov	r1, #1
	mov	r2, #11
	mov	r3, #16
	bl	_Z11loadGraphicP7Graphiciiii
.LVL121:
	.loc 2 201 0
	mov	r0, r4
	str	r5, [sp]
	mov	r1, #1
	mov	r2, #12
	mov	r3, #16
	bl	_Z11loadGraphicP7Graphiciiii
.LVL122:
	.loc 2 202 0
	mov	r0, r4
	str	r5, [sp]
	add	r0, r0, #32
	mov	r1, #1
	mov	r2, #13
	mov	r3, #16
	bl	_Z11loadGraphicP7Graphiciiii
.LVL123:
	.loc 2 203 0
	mov	r0, r4
	str	r5, [sp]
	add	r0, r0, #64
	mov	r1, #1
	mov	r2, #14
	mov	r3, #16
	bl	_Z11loadGraphicP7Graphiciiii
.LVL124:
	.loc 2 204 0
	mov	r0, r4
	str	r5, [sp]
	add	r0, r0, #96
	mov	r1, #1
	mov	r2, #15
	mov	r3, #16
	bl	_Z11loadGraphicP7Graphiciiii
.LVL125:
	.loc 2 205 0
	add	sp, sp, #12
	@ sp needed
	pop	{r4, r5, pc}
.L141:
	.align	2
.L140:
	.word	.LANCHOR0
	.cfi_endproc
.LFE212:
	.size	_Z13animalMobInitv, .-_Z13animalMobInitv
	.global	_ZTV9animalMob
	.global	animalGraphics
	.section	.rodata
	.align	3
	.set	.LANCHOR1,. + 0
	.type	_ZTV9animalMob, %object
	.size	_ZTV9animalMob, 40
_ZTV9animalMob:
	.word	0
	.word	0
	.word	_ZN9animalMob10saveToFileEP7__sFILE
	.word	_ZN9animalMob12loadFromFileEP7__sFILE
	.word	_ZN9animalMob14sendWifiUpdateEv
	.word	_ZN9animalMob4hurtEii
	.word	_ZN9animalMob10isMyPlayerEv
	.word	_ZN9animalMob9updateMobEP11WorldObject
	.word	_ZN9animalMobD1Ev
	.word	_ZN9animalMobD0Ev
	.bss
	.align	2
	.set	.LANCHOR0,. + 0
	.type	animalGraphics, %object
	.size	animalGraphics, 192
animalGraphics:
	.space	192
	.text
.Letext0:
	.file 3 "c:\\devkitpro\\devkitarm\\arm-none-eabi\\include\\machine\\_default_types.h"
	.file 4 "c:\\devkitpro\\devkitarm\\arm-none-eabi\\include\\sys\\lock.h"
	.file 5 "c:\\devkitpro\\devkitarm\\arm-none-eabi\\include\\sys\\_types.h"
	.file 6 "c:\\devkitpro\\devkitarm\\lib\\gcc\\arm-none-eabi\\4.9.2\\include\\stddef.h"
	.file 7 "c:\\devkitpro\\devkitarm\\arm-none-eabi\\include\\sys\\reent.h"
	.file 8 "c:\\devkitpro\\devkitarm\\arm-none-eabi\\include\\stdio.h"
	.file 9 "c:/Users/Matthew/Documents/GitHub/Mine-DS/source/mobs/../world.h"
	.file 10 "c:\\devkitpro\\devkitarm\\arm-none-eabi\\include\\stdint.h"
	.file 11 "c:/devkitPro/libnds/include/nds/ndstypes.h"
	.file 12 "c:/devkitPro/libnds/include/nds/arm9/dynamicArray.h"
	.file 13 "c:/devkitPro/libnds/include/nds/arm9/background.h"
	.file 14 "c:/devkitPro/libnds/include/nds/arm9/videoGL.h"
	.file 15 "c:/devkitPro/libnds/include/nds/arm9/sprite.h"
	.file 16 "c:/Users/Matthew/Documents/GitHub/Mine-DS/source/mobs/../graphics/graphics.h"
	.file 17 "c:/Users/Matthew/Documents/GitHub/Mine-DS/source/mobs/../sounds.h"
	.file 18 "c:/Users/Matthew/Documents/GitHub/Mine-DS/source/mobs/baseMob.h"
	.file 19 "c:/devkitPro/libnds/include/nds/arm9/video.h"
	.file 20 "c:/Users/Matthew/Documents/GitHub/Mine-DS/source/mobs/mobHandler.h"
	.file 21 "c:/Users/Matthew/Documents/GitHub/Mine-DS/source/mobs/../mainGame.h"
	.file 22 "c:\\devkitpro\\devkitarm\\arm-none-eabi\\include\\stdlib.h"